target datalayout = "e-m:e-p270:32:32-p271:32:32-p272:64:64-i64:64-i128:128-f80:128-n8:16:32:64-S128"
target triple = "x86_64-pc-linux-gnu"

%struct._EcParser = type { i8, i8, %union.EcParserAddrUnion, i16, i16 }
%union.EcParserAddrUnion = type { i32 }
%struct.anon = type { i16, i16 }
%struct.ecat_esc_reg_info = type { i16, i16, i16, ptr, ptr, ptr, ptr }

; Function Attrs: null_pointer_is_valid sspstrong uwtable
define internal i32 @dissect_esc_register(ptr noundef %0, ptr noundef %1, ptr noundef %2, i32 noundef %3, i32 noundef %4, ptr noundef %5, i16 noundef zeroext %6) #0 {
  %8 = alloca ptr, align 8
  %9 = alloca ptr, align 8
  %10 = alloca ptr, align 8
  %11 = alloca i32, align 4
  %12 = alloca i32, align 4
  %13 = alloca ptr, align 8
  %14 = alloca i16, align 2
  %15 = alloca i32, align 4
  %16 = alloca i32, align 4
  %17 = alloca i32, align 4
  %18 = alloca i32, align 4
  %19 = alloca i32, align 4
  store ptr %0, ptr %8, align 8
  store ptr %1, ptr %9, align 8
  store ptr %2, ptr %10, align 8
  store i32 %3, ptr %11, align 4
  store i32 %4, ptr %12, align 4
  store ptr %5, ptr %13, align 8
  store i16 %6, ptr %14, align 2
  call void @llvm.lifetime.start.p0(i64 4, ptr %15) #6
  call void @llvm.lifetime.start.p0(i64 4, ptr %16) #6
  call void @llvm.lifetime.start.p0(i64 4, ptr %17) #6
  store i32 -1, ptr %17, align 4
  call void @llvm.lifetime.start.p0(i64 4, ptr %18) #6
  call void @llvm.lifetime.start.p0(i64 4, ptr %19) #6
  store i32 0, ptr %19, align 4
  %20 = load i32, ptr %12, align 4
  %21 = icmp ugt i32 %20, 0
  br i1 %21, label %22, label %208

22:                                               ; preds = %7
  %23 = load ptr, ptr %13, align 8
  %24 = getelementptr inbounds nuw %struct._EcParser, ptr %23, i32 0, i32 0
  %25 = load i8, ptr %24, align 4
  %26 = zext i8 %25 to i32
  switch i32 %26, label %207 [
    i32 1, label %27
    i32 7, label %27
    i32 4, label %27
    i32 2, label %28
    i32 3, label %28
    i32 5, label %28
    i32 6, label %28
    i32 8, label %28
    i32 9, label %28
    i32 13, label %28
    i32 14, label %28
  ]

27:                                               ; preds = %22, %22, %22
  store i32 1, ptr %19, align 4
  br label %28

28:                                               ; preds = %22, %22, %22, %22, %22, %22, %22, %22, %27
  store i32 0, ptr %15, align 4
  br label %29

29:                                               ; preds = %203, %28
  %30 = load i32, ptr %15, align 4
  %31 = zext i32 %30 to i64
  %32 = icmp ult i64 %31, 108
  br i1 %32, label %33, label %206

33:                                               ; preds = %29
  %34 = load ptr, ptr %13, align 8
  %35 = getelementptr inbounds nuw %struct._EcParser, ptr %34, i32 0, i32 2
  %36 = getelementptr inbounds nuw %struct.anon, ptr %35, i32 0, i32 1
  %37 = load i16, ptr %36, align 2
  %38 = zext i16 %37 to i32
  %39 = load i32, ptr %12, align 4
  %40 = add i32 %38, %39
  %41 = load i32, ptr %15, align 4
  %42 = zext i32 %41 to i64
  %43 = getelementptr [108 x %struct.ecat_esc_reg_info], ptr @ecat_esc_registers, i64 0, i64 %42
  %44 = getelementptr inbounds nuw %struct.ecat_esc_reg_info, ptr %43, i32 0, i32 0
  %45 = load i16, ptr %44, align 8
  %46 = zext i16 %45 to i32
  %47 = icmp ult i32 %40, %46
  br i1 %47, label %48, label %49

48:                                               ; preds = %33
  br label %206

49:                                               ; preds = %33
  %50 = load i32, ptr %15, align 4
  %51 = zext i32 %50 to i64
  %52 = getelementptr [108 x %struct.ecat_esc_reg_info], ptr @ecat_esc_registers, i64 0, i64 %51
  %53 = getelementptr inbounds nuw %struct.ecat_esc_reg_info, ptr %52, i32 0, i32 0
  %54 = load i16, ptr %53, align 8
  %55 = zext i16 %54 to i32
  store i32 %55, ptr %18, align 4
  store i32 0, ptr %16, align 4
  br label %56

56:                                               ; preds = %199, %49
  %57 = load i32, ptr %16, align 4
  %58 = load i32, ptr %15, align 4
  %59 = zext i32 %58 to i64
  %60 = getelementptr [108 x %struct.ecat_esc_reg_info], ptr @ecat_esc_registers, i64 0, i64 %59
  %61 = getelementptr inbounds nuw %struct.ecat_esc_reg_info, ptr %60, i32 0, i32 2
  %62 = load i16, ptr %61, align 4
  %63 = zext i16 %62 to i32
  %64 = icmp slt i32 %57, %63
  br i1 %64, label %65, label %202

65:                                               ; preds = %56
  %66 = load i32, ptr %18, align 4
  %67 = load ptr, ptr %13, align 8
  %68 = getelementptr inbounds nuw %struct._EcParser, ptr %67, i32 0, i32 2
  %69 = getelementptr inbounds nuw %struct.anon, ptr %68, i32 0, i32 1
  %70 = load i16, ptr %69, align 2
  %71 = zext i16 %70 to i32
  %72 = icmp sge i32 %66, %71
  br i1 %72, label %73, label %190

73:                                               ; preds = %65
  %74 = load i32, ptr %18, align 4
  %75 = load i32, ptr %15, align 4
  %76 = zext i32 %75 to i64
  %77 = getelementptr [108 x %struct.ecat_esc_reg_info], ptr @ecat_esc_registers, i64 0, i64 %76
  %78 = getelementptr inbounds nuw %struct.ecat_esc_reg_info, ptr %77, i32 0, i32 1
  %79 = load i16, ptr %78, align 2
  %80 = zext i16 %79 to i32
  %81 = add i32 %74, %80
  %82 = load ptr, ptr %13, align 8
  %83 = getelementptr inbounds nuw %struct._EcParser, ptr %82, i32 0, i32 2
  %84 = getelementptr inbounds nuw %struct.anon, ptr %83, i32 0, i32 1
  %85 = load i16, ptr %84, align 2
  %86 = zext i16 %85 to i32
  %87 = load i32, ptr %12, align 4
  %88 = add i32 %86, %87
  %89 = trunc i32 %88 to i16
  %90 = zext i16 %89 to i32
  %91 = icmp sle i32 %81, %90
  br i1 %91, label %92, label %190

92:                                               ; preds = %73
  %93 = load i16, ptr %14, align 2
  %94 = zext i16 %93 to i32
  %95 = icmp sgt i32 %94, 0
  br i1 %95, label %99, label %96

96:                                               ; preds = %92
  %97 = load i32, ptr %19, align 4
  %98 = icmp ne i32 %97, 0
  br i1 %98, label %189, label %99

99:                                               ; preds = %96, %92
  %100 = load i32, ptr %15, align 4
  %101 = zext i32 %100 to i64
  %102 = getelementptr [108 x %struct.ecat_esc_reg_info], ptr @ecat_esc_registers, i64 0, i64 %101
  %103 = getelementptr inbounds nuw %struct.ecat_esc_reg_info, ptr %102, i32 0, i32 6
  %104 = load ptr, ptr %103, align 8
  %105 = icmp ne ptr %104, null
  br i1 %105, label %106, label %125

106:                                              ; preds = %99
  %107 = load i32, ptr %15, align 4
  %108 = zext i32 %107 to i64
  %109 = getelementptr [108 x %struct.ecat_esc_reg_info], ptr @ecat_esc_registers, i64 0, i64 %108
  %110 = getelementptr inbounds nuw %struct.ecat_esc_reg_info, ptr %109, i32 0, i32 6
  %111 = load ptr, ptr %110, align 8
  %112 = load ptr, ptr %8, align 8
  %113 = load ptr, ptr %9, align 8
  %114 = load ptr, ptr %10, align 8
  %115 = load i32, ptr %11, align 4
  %116 = load i32, ptr %18, align 4
  %117 = load ptr, ptr %13, align 8
  %118 = getelementptr inbounds nuw %struct._EcParser, ptr %117, i32 0, i32 2
  %119 = getelementptr inbounds nuw %struct.anon, ptr %118, i32 0, i32 1
  %120 = load i16, ptr %119, align 2
  %121 = zext i16 %120 to i32
  %122 = sub i32 %116, %121
  %123 = add i32 %115, %122
  %124 = call i32 %111(ptr noundef %112, ptr noundef %113, ptr noundef %114, i32 noundef %123)
  br label %188

125:                                              ; preds = %99
  %126 = load i32, ptr %15, align 4
  %127 = zext i32 %126 to i64
  %128 = getelementptr [108 x %struct.ecat_esc_reg_info], ptr @ecat_esc_registers, i64 0, i64 %127
  %129 = getelementptr inbounds nuw %struct.ecat_esc_reg_info, ptr %128, i32 0, i32 4
  %130 = load ptr, ptr %129, align 8
  %131 = icmp ne ptr %130, null
  br i1 %131, label %132, label %162

132:                                              ; preds = %125
  %133 = load ptr, ptr %9, align 8
  %134 = load ptr, ptr %10, align 8
  %135 = load i32, ptr %11, align 4
  %136 = load i32, ptr %18, align 4
  %137 = load ptr, ptr %13, align 8
  %138 = getelementptr inbounds nuw %struct._EcParser, ptr %137, i32 0, i32 2
  %139 = getelementptr inbounds nuw %struct.anon, ptr %138, i32 0, i32 1
  %140 = load i16, ptr %139, align 2
  %141 = zext i16 %140 to i32
  %142 = sub i32 %136, %141
  %143 = add i32 %135, %142
  %144 = load i32, ptr %15, align 4
  %145 = zext i32 %144 to i64
  %146 = getelementptr [108 x %struct.ecat_esc_reg_info], ptr @ecat_esc_registers, i64 0, i64 %145
  %147 = getelementptr inbounds nuw %struct.ecat_esc_reg_info, ptr %146, i32 0, i32 3
  %148 = load ptr, ptr %147, align 8
  %149 = load i32, ptr %148, align 4
  %150 = load i32, ptr %15, align 4
  %151 = zext i32 %150 to i64
  %152 = getelementptr [108 x %struct.ecat_esc_reg_info], ptr @ecat_esc_registers, i64 0, i64 %151
  %153 = getelementptr inbounds nuw %struct.ecat_esc_reg_info, ptr %152, i32 0, i32 5
  %154 = load ptr, ptr %153, align 8
  %155 = load i32, ptr %154, align 4
  %156 = load i32, ptr %15, align 4
  %157 = zext i32 %156 to i64
  %158 = getelementptr [108 x %struct.ecat_esc_reg_info], ptr @ecat_esc_registers, i64 0, i64 %157
  %159 = getelementptr inbounds nuw %struct.ecat_esc_reg_info, ptr %158, i32 0, i32 4
  %160 = load ptr, ptr %159, align 8
  %161 = call ptr @proto_tree_add_bitmask(ptr noundef %133, ptr noundef %134, i32 noundef %143, i32 noundef %149, i32 noundef %155, ptr noundef %160, i32 noundef -2147483648)
  br label %187

162:                                              ; preds = %125
  %163 = load ptr, ptr %9, align 8
  %164 = load i32, ptr %15, align 4
  %165 = zext i32 %164 to i64
  %166 = getelementptr [108 x %struct.ecat_esc_reg_info], ptr @ecat_esc_registers, i64 0, i64 %165
  %167 = getelementptr inbounds nuw %struct.ecat_esc_reg_info, ptr %166, i32 0, i32 3
  %168 = load ptr, ptr %167, align 8
  %169 = load i32, ptr %168, align 4
  %170 = load ptr, ptr %10, align 8
  %171 = load i32, ptr %11, align 4
  %172 = load i32, ptr %18, align 4
  %173 = load ptr, ptr %13, align 8
  %174 = getelementptr inbounds nuw %struct._EcParser, ptr %173, i32 0, i32 2
  %175 = getelementptr inbounds nuw %struct.anon, ptr %174, i32 0, i32 1
  %176 = load i16, ptr %175, align 2
  %177 = zext i16 %176 to i32
  %178 = sub i32 %172, %177
  %179 = add i32 %171, %178
  %180 = load i32, ptr %15, align 4
  %181 = zext i32 %180 to i64
  %182 = getelementptr [108 x %struct.ecat_esc_reg_info], ptr @ecat_esc_registers, i64 0, i64 %181
  %183 = getelementptr inbounds nuw %struct.ecat_esc_reg_info, ptr %182, i32 0, i32 1
  %184 = load i16, ptr %183, align 2
  %185 = zext i16 %184 to i32
  %186 = call ptr @proto_tree_add_item(ptr noundef %163, i32 noundef %169, ptr noundef %170, i32 noundef %179, i32 noundef %185, i32 noundef -2147483648)
  br label %187

187:                                              ; preds = %162, %132
  br label %188

188:                                              ; preds = %187, %106
  br label %189

189:                                              ; preds = %188, %96
  store i32 0, ptr %17, align 4
  br label %190

190:                                              ; preds = %189, %73, %65
  %191 = load i32, ptr %15, align 4
  %192 = zext i32 %191 to i64
  %193 = getelementptr [108 x %struct.ecat_esc_reg_info], ptr @ecat_esc_registers, i64 0, i64 %192
  %194 = getelementptr inbounds nuw %struct.ecat_esc_reg_info, ptr %193, i32 0, i32 1
  %195 = load i16, ptr %194, align 2
  %196 = zext i16 %195 to i32
  %197 = load i32, ptr %18, align 4
  %198 = add i32 %197, %196
  store i32 %198, ptr %18, align 4
  br label %199

199:                                              ; preds = %190
  %200 = load i32, ptr %16, align 4
  %201 = add i32 %200, 1
  store i32 %201, ptr %16, align 4
  br label %56, !llvm.loop !11

202:                                              ; preds = %56
  br label %203

203:                                              ; preds = %202
  %204 = load i32, ptr %15, align 4
  %205 = add i32 %204, 1
  store i32 %205, ptr %15, align 4
  br label %29, !llvm.loop !12

206:                                              ; preds = %48, %29
  br label %207

207:                                              ; preds = %22, %206
  br label %208

208:                                              ; preds = %207, %7
  %209 = load i32, ptr %17, align 4
  call void @llvm.lifetime.end.p0(i64 4, ptr %19) #6
  call void @llvm.lifetime.end.p0(i64 4, ptr %18) #6
  call void @llvm.lifetime.end.p0(i64 4, ptr %17) #6
  call void @llvm.lifetime.end.p0(i64 4, ptr %16) #6
  call void @llvm.lifetime.end.p0(i64 4, ptr %15) #6
  ret i32 %209
}