; Function Attrs: null_pointer_is_valid sspstrong uwtable
define internal fastcc range(i32 -1, 1) i32 @dissect_esc_register(ptr noundef %0, ptr noundef %1, ptr noundef %2, i32 noundef %3, i32 noundef range(i32 0, 2048) %4, ptr noundef readonly captures(none) %5, i16 noundef zeroext %6) unnamed_addr #0 {
  %.not = icmp eq i32 %4, 0
  br i1 %.not, label %.loopexit, label %8

8:                                                ; preds = %7
  %9 = load i8, ptr %5, align 4
  switch i8 %9, label %.loopexit [
    i8 1, label %12
    i8 7, label %12
    i8 4, label %12
    i8 2, label %.thread
    i8 3, label %.thread
    i8 5, label %.thread
    i8 6, label %.thread
    i8 8, label %.thread
    i8 9, label %.thread
    i8 13, label %.thread
    i8 14, label %.thread
  ]

.thread:                                          ; preds = %8, %8, %8, %8, %8, %8, %8, %8
  %10 = getelementptr inbounds nuw i8, ptr %5, i64 6
  %11 = trunc nuw nsw i32 %4 to i16
  br label %.split.preheader

12:                                               ; preds = %8, %8, %8
  %13 = getelementptr inbounds nuw i8, ptr %5, i64 6
  %14 = trunc nuw nsw i32 %4 to i16
  %15 = icmp eq i16 %6, 0
  br i1 %15, label %.split.us, label %.split.preheader

.split.preheader:                                 ; preds = %.thread, %12
  %16 = phi i16 [ %11, %.thread ], [ %14, %12 ]
  %17 = phi ptr [ %10, %.thread ], [ %13, %12 ]
  br label %.split

.split.us:                                        ; preds = %12
  %18 = load i16, ptr %13, align 2
  %19 = zext i16 %18 to i32
  %20 = add nuw nsw i32 %4, %19
  %21 = add i16 %18, %14
  %22 = zext i16 %21 to i32
  br label %23

23:                                               ; preds = %._crit_edge.split.us.us, %.split.us
  %indvars.iv73 = phi i64 [ %indvars.iv.next74, %._crit_edge.split.us.us ], [ 0, %.split.us ]
  %.164.us = phi i32 [ %.2.lcssa.us, %._crit_edge.split.us.us ], [ -1, %.split.us ]
  %24 = getelementptr [108 x %struct.ecat_esc_reg_info], ptr @ecat_esc_registers, i64 0, i64 %indvars.iv73
  %25 = load i16, ptr %24, align 8
  %26 = zext i16 %25 to i32
  %27 = icmp samesign ult i32 %20, %26
  br i1 %27, label %.loopexit, label %.preheader.us

._crit_edge.split.us.us:                          ; preds = %._crit_edge77, %.preheader.us
  %.2.lcssa.us = phi i32 [ %.164.us, %.preheader.us ], [ %.3.us.us, %._crit_edge77 ]
  %indvars.iv.next74 = add nuw nsw i64 %indvars.iv73, 1
  %exitcond76.not = icmp eq i64 %indvars.iv.next74, 108
  br i1 %exitcond76.not, label %.loopexit, label %23, !llvm.loop !10

.preheader.us:                                    ; preds = %23
  %28 = getelementptr inbounds nuw i8, ptr %24, i64 4
  %29 = load i16, ptr %28, align 4
  %30 = zext i16 %29 to i32
  %.not67 = icmp eq i16 %29, 0
  br i1 %.not67, label %._crit_edge.split.us.us, label %.lr.ph.us

.lr.ph.us:                                        ; preds = %.preheader.us
  %31 = getelementptr inbounds nuw i8, ptr %24, i64 2
  %32 = load i16, ptr %31, align 2
  %33 = zext i16 %32 to i32
  br label %._crit_edge77

._crit_edge77:                                    ; preds = %._crit_edge77, %.lr.ph.us
  %.04662.us.us = phi i32 [ %26, %.lr.ph.us ], [ %.pre, %._crit_edge77 ]
  %.261.us.us = phi i32 [ %.164.us, %.lr.ph.us ], [ %.3.us.us, %._crit_edge77 ]
  %.04860.us.us = phi i32 [ 0, %.lr.ph.us ], [ %35, %._crit_edge77 ]
  %.not56.us.us = icmp slt i32 %.04662.us.us, %19
  %.pre = add i32 %.04662.us.us, %33
  %.not57.us.us = icmp sgt i32 %.pre, %22
  %34 = select i1 %.not56.us.us, i1 true, i1 %.not57.us.us
  %.3.us.us = select i1 %34, i32 %.261.us.us, i32 0
  %35 = add nuw nsw i32 %.04860.us.us, 1
  %exitcond72.not = icmp eq i32 %35, %30
  br i1 %exitcond72.not, label %._crit_edge.split.us.us, label %._crit_edge77, !llvm.loop !11

.split:                                           ; preds = %.split.preheader, %._crit_edge.split
  %indvars.iv = phi i64 [ 0, %.split.preheader ], [ %indvars.iv.next, %._crit_edge.split ]
  %.164 = phi i32 [ -1, %.split.preheader ], [ %.2.lcssa, %._crit_edge.split ]
  %36 = load i16, ptr %17, align 2
  %37 = zext i16 %36 to i32
  %38 = add nuw nsw i32 %4, %37
  %39 = getelementptr [108 x %struct.ecat_esc_reg_info], ptr @ecat_esc_registers, i64 0, i64 %indvars.iv
  %40 = load i16, ptr %39, align 8
  %41 = zext i16 %40 to i32
  %42 = icmp samesign ult i32 %38, %41
  br i1 %42, label %.loopexit, label %.preheader

.preheader:                                       ; preds = %.split
  %43 = getelementptr inbounds nuw i8, ptr %39, i64 4
  %44 = load i16, ptr %43, align 4
  %45 = zext i16 %44 to i32
  %.not66 = icmp eq i16 %44, 0
  br i1 %.not66, label %._crit_edge.split, label %.lr.ph

.lr.ph:                                           ; preds = %.preheader
  %46 = getelementptr inbounds nuw i8, ptr %39, i64 2
  %47 = getelementptr inbounds nuw i8, ptr %39, i64 32
  %48 = getelementptr inbounds nuw i8, ptr %39, i64 16
  %49 = getelementptr inbounds nuw i8, ptr %39, i64 8
  %50 = getelementptr inbounds nuw i8, ptr %39, i64 24
  %.pre.pre = load i16, ptr %46, align 2
  %51 = zext i16 %.pre.pre to i32
  %.pre78 = zext i16 %.pre.pre to i32
  br label %52

52:                                               ; preds = %.lr.ph, %81
  %.04662 = phi i32 [ %41, %.lr.ph ], [ %.pre-phi81, %81 ]
  %.261 = phi i32 [ %.164, %.lr.ph ], [ %.3, %81 ]
  %.04860 = phi i32 [ 0, %.lr.ph ], [ %82, %81 ]
  %53 = load i16, ptr %17, align 2
  %54 = zext i16 %53 to i32
  %.not56 = icmp slt i32 %.04662, %54
  br i1 %.not56, label %._crit_edge, label %55

._crit_edge:                                      ; preds = %52
  %.pre80 = add nsw i32 %.04662, %.pre78
  br label %81

55:                                               ; preds = %52
  %56 = add nuw i32 %.04662, %51
  %57 = add i16 %53, %16
  %58 = zext i16 %57 to i32
  %.not57 = icmp sgt i32 %56, %58
  br i1 %.not57, label %81, label %59

59:                                               ; preds = %55
  %60 = load ptr, ptr %47, align 8
  %.not58 = icmp eq ptr %60, null
  br i1 %.not58, label %65, label %61

61:                                               ; preds = %59
  %62 = add i32 %.04662, %3
  %63 = sub i32 %62, %54
  %64 = tail call i32 %60(ptr noundef %0, ptr noundef %1, ptr noundef %2, i32 noundef %63)
  br label %81

65:                                               ; preds = %59
  %66 = load ptr, ptr %48, align 8
  %.not59 = icmp eq ptr %66, null
  br i1 %.not59, label %75, label %67

67:                                               ; preds = %65
  %68 = add i32 %.04662, %3
  %69 = sub i32 %68, %54
  %70 = load ptr, ptr %49, align 8
  %71 = load i32, ptr %70, align 4
  %72 = load ptr, ptr %50, align 8
  %73 = load i32, ptr %72, align 4
  %74 = tail call ptr @proto_tree_add_bitmask(ptr noundef %1, ptr noundef %2, i32 noundef %69, i32 noundef %71, i32 noundef %73, ptr noundef nonnull %66, i32 noundef -2147483648)
  br label %81

75:                                               ; preds = %65
  %76 = load ptr, ptr %49, align 8
  %77 = load i32, ptr %76, align 4
  %78 = add i32 %.04662, %3
  %79 = sub i32 %78, %54
  %80 = tail call ptr @proto_tree_add_item(ptr noundef %1, i32 noundef %77, ptr noundef %2, i32 noundef %79, i32 noundef %51, i32 noundef -2147483648)
  br label %81

81:                                               ; preds = %._crit_edge, %67, %75, %61, %55
  %.pre-phi81 = phi i32 [ %.pre80, %._crit_edge ], [ %56, %67 ], [ %56, %75 ], [ %56, %61 ], [ %56, %55 ]
  %.3 = phi i32 [ %.261, %._crit_edge ], [ 0, %67 ], [ 0, %75 ], [ 0, %61 ], [ %.261, %55 ]
  %82 = add nuw nsw i32 %.04860, 1
  %exitcond.not = icmp eq i32 %82, %45
  br i1 %exitcond.not, label %._crit_edge.split, label %52, !llvm.loop !11

._crit_edge.split:                                ; preds = %81, %.preheader
  %.2.lcssa = phi i32 [ %.164, %.preheader ], [ %.3, %81 ]
  %indvars.iv.next = add nuw nsw i64 %indvars.iv, 1
  %exitcond71.not = icmp eq i64 %indvars.iv.next, 108
  br i1 %exitcond71.not, label %.loopexit, label %.split, !llvm.loop !10

.loopexit:                                        ; preds = %._crit_edge.split, %.split, %._crit_edge.split.us.us, %23, %8, %7
  %.047 = phi i32 [ -1, %8 ], [ -1, %7 ], [ %.2.lcssa.us, %._crit_edge.split.us.us ], [ %.164.us, %23 ], [ %.2.lcssa, %._crit_edge.split ], [ %.164, %.split ]
  ret i32 %.047
}